; Function Attrs: mustprogress uwtable
define hidden void @_ZN11mpf_manager18to_string_hexfloatB5cxx11ERK3mpf(ptr noalias sret(%"class.std::__cxx11::basic_string") align 8 %agg.result, ptr noundef nonnull align 8 dereferenceable(840) %this, ptr noundef nonnull align 8 dereferenceable(32) %x) local_unnamed_addr #5 align 2 personality ptr @__gxx_personality_v0 {
entry:
  %ss = alloca %"class.std::__cxx11::basic_stringstream", align 8
  %ref.tmp = alloca %"class.std::__cxx11::basic_string", align 8
  %ref.tmp2 = alloca %"class.std::allocator", align 1
  call void @_ZNSaIcEC1Ev(ptr noundef nonnull align 1 dereferenceable(1) %ref.tmp2) #17
  %call.i4 = invoke noundef ptr @_ZNSt7__cxx1112basic_stringIcSt11char_traitsIcESaIcEE13_M_local_dataEv(ptr noundef nonnull align 8 dereferenceable(32) %ref.tmp)
          to label %call.i.noexc unwind label %lpad

call.i.noexc:                                     ; preds = %entry
  invoke void @_ZNSt7__cxx1112basic_stringIcSt11char_traitsIcESaIcEE12_Alloc_hiderC1EPcRKS3_(ptr noundef nonnull align 8 dereferenceable(8) %ref.tmp, ptr noundef %call.i4, ptr noundef nonnull align 1 dereferenceable(1) %ref.tmp2)
          to label %.noexc unwind label %lpad

.noexc:                                           ; preds = %call.i.noexc
  invoke void @_ZNSt7__cxx1112basic_stringIcSt11char_traitsIcESaIcEE12_M_constructIPKcEEvT_S8_St20forward_iterator_tag(ptr noundef nonnull align 8 dereferenceable(32) %ref.tmp, ptr noundef nonnull @.str.10, ptr noundef nonnull @.str.10)
          to label %invoke.cont unwind label %lpad.i

lpad.i:                                           ; preds = %.noexc
  %0 = landingpad { ptr, i32 }
          cleanup
  call void @_ZNSaIcED2Ev(ptr noundef nonnull align 1 dereferenceable(1) %ref.tmp) #17
  br label %ehcleanup

invoke.cont:                                      ; preds = %.noexc
  invoke void @_ZNSt7__cxx1118basic_stringstreamIcSt11char_traitsIcESaIcEEC1ERKNS_12basic_stringIcS2_S3_EESt13_Ios_Openmode(ptr noundef nonnull align 8 dereferenceable(128) %ss, ptr noundef nonnull align 8 dereferenceable(32) %ref.tmp, i32 noundef 24)
          to label %invoke.cont19 unwind label %lpad3

invoke.cont19:                                    ; preds = %invoke.cont
  call void @_ZNSt7__cxx1112basic_stringIcSt11char_traitsIcESaIcEED1Ev(ptr noundef nonnull align 8 dereferenceable(32) %ref.tmp) #17
  call void @_ZNSaIcED1Ev(ptr noundef nonnull align 1 dereferenceable(1) %ref.tmp2) #17
  %vtable = load ptr, ptr %ss, align 8
  %vbase.offset.ptr = getelementptr i8, ptr %vtable, i64 -24
  %vbase.offset = load i64, ptr %vbase.offset.ptr, align 8
  %add.ptr = getelementptr inbounds i8, ptr %ss, i64 %vbase.offset
  %_M_flags.i = getelementptr inbounds i8, ptr %add.ptr, i64 24
  %1 = load i32, ptr %_M_flags.i, align 8
  %or.i.i.i = or i32 %1, 19464
  store i32 %or.i.i.i, ptr %_M_flags.i, align 4
  %vtable15 = load ptr, ptr %ss, align 8
  %vbase.offset.ptr16 = getelementptr i8, ptr %vtable15, i64 -24
  %vbase.offset17 = load i64, ptr %vbase.offset.ptr16, align 8
  %add.ptr18 = getelementptr inbounds i8, ptr %ss, i64 %vbase.offset17
  %_M_flags.i5 = getelementptr inbounds i8, ptr %add.ptr18, i64 24
  %2 = load i32, ptr %_M_flags.i5, align 8
  %or.i.i.i6 = or i32 %2, %1
  store i32 %or.i.i.i6, ptr %_M_flags.i5, align 4
  %vtable21 = load ptr, ptr %ss, align 8
  %vbase.offset.ptr22 = getelementptr i8, ptr %vtable21, i64 -24
  %vbase.offset23 = load i64, ptr %vbase.offset.ptr22, align 8
  %add.ptr24 = getelementptr inbounds i8, ptr %ss, i64 %vbase.offset23
  %_M_precision.i = getelementptr inbounds i8, ptr %add.ptr24, i64 8
  store i64 13, ptr %_M_precision.i, align 8
  %add.ptr27 = getelementptr inbounds i8, ptr %ss, i64 16
  %call29 = invoke noundef nonnull align 8 dereferenceable(8) ptr @_ZNSolsEPFRSt8ios_baseS0_E(ptr noundef nonnull align 8 dereferenceable(8) %add.ptr27, ptr noundef nonnull @_ZSt8hexfloatRSt8ios_base)
          to label %invoke.cont28 unwind label %lpad6

invoke.cont28:                                    ; preds = %invoke.cont19
  %call31 = invoke noundef double @_ZN11mpf_manager9to_doubleERK3mpf(ptr noundef nonnull align 8 dereferenceable(840) %this, ptr noundef nonnull align 8 dereferenceable(32) %x)
          to label %invoke.cont30 unwind label %lpad6

invoke.cont30:                                    ; preds = %invoke.cont28
  %call33 = invoke noundef nonnull align 8 dereferenceable(8) ptr @_ZNSolsEd(ptr noundef nonnull align 8 dereferenceable(8) %call29, double noundef %call31)
          to label %invoke.cont32 unwind label %lpad6

invoke.cont32:                                    ; preds = %invoke.cont30
  invoke void @_ZNKSt7__cxx1118basic_stringstreamIcSt11char_traitsIcESaIcEE3strEv(ptr sret(%"class.std::__cxx11::basic_string") align 8 %agg.result, ptr noundef nonnull align 8 dereferenceable(128) %ss)
          to label %invoke.cont34 unwind label %lpad6

invoke.cont34:                                    ; preds = %invoke.cont32
  call void @_ZNSt7__cxx1118basic_stringstreamIcSt11char_traitsIcESaIcEED1Ev(ptr noundef nonnull align 8 dereferenceable(128) %ss) #17
  ret void

lpad:                                             ; preds = %call.i.noexc, %entry
  %3 = landingpad { ptr, i32 }
          cleanup
  br label %ehcleanup

lpad3:                                            ; preds = %invoke.cont
  %4 = landingpad { ptr, i32 }
          cleanup
  call void @_ZNSt7__cxx1112basic_stringIcSt11char_traitsIcESaIcEED1Ev(ptr noundef nonnull align 8 dereferenceable(32) %ref.tmp) #17
  br label %ehcleanup

ehcleanup:                                        ; preds = %lpad, %lpad.i, %lpad3
  %.pn = phi { ptr, i32 } [ %4, %lpad3 ], [ %3, %lpad ], [ %0, %lpad.i ]
  call void @_ZNSaIcED1Ev(ptr noundef nonnull align 1 dereferenceable(1) %ref.tmp2) #17
  br label %eh.resume

lpad6:                                            ; preds = %invoke.cont32, %invoke.cont30, %invoke.cont28, %invoke.cont19
  %5 = landingpad { ptr, i32 }
          cleanup
  call void @_ZNSt7__cxx1118basic_stringstreamIcSt11char_traitsIcESaIcEED1Ev(ptr noundef nonnull align 8 dereferenceable(128) %ss) #17
  br label %eh.resume

eh.resume:                                        ; preds = %lpad6, %ehcleanup
  %.pn2 = phi { ptr, i32 } [ %5, %lpad6 ], [ %.pn, %ehcleanup ]
  resume { ptr, i32 } %.pn2
}